(dp0
S'ggH_hww_GE2J_MJJ_350_700_PTHJJ_GT25'
p1
F1.0
sS'qqH_hww_MJJ_GT350_PTH_GT200'
p2
F1.0281329923273657
sS'ggH_hww_GE2J_MJJ_0_350_PTH_120_200'
p3
F0.983050847457627
sS'ggH_hww_1J_PTH_120_200'
p4
F1.0576923076923077
sS'ZH_had_hww_MJJ_120_350'
p5
F0.9430835734870316
sS'WH_had_hww_MJJ_60_120'
p6
F1.14006968641115
sS'ZH_lep_hww_PTV_75_150'
p7
F1.0100334448160535
sS'WH_had_hww_MJJ_120_350'
p8
F1.0782080485952923
sS'ggH_hww_GE2J_MJJ_350_700_PTHJJ_0_25'
p9
F1.1081081081081081
sS'ZH_lep_hww_FWDH'
p10
F0.985738255033557
sS'qqH_hww_MJJ_GT700_PTHJJ_GT25'
p11
F0.9439461883408071
sS'WH_lep_hww_PTV_150_250_0J'
p12
F1.0193050193050195
sS'WH_lep_hww_PTV_150_250_GE1J'
p13
F0.9725
sS'WH_lep_hww_PTV_0_75'
p14
F1.004340277777778
sS'ZH_had_hww_MJJ_60_120'
p15
F0.880779296307066
sS'ggH_hww_PTH_300_450'
p16
F0.8846153846153846
sS'ggH_hww_1J_PTH_0_60'
p17
F1.0808448652585578
sS'qqH_hww_1J'
p18
F0.9876728803367409
sS'ZH_lep_hww_PTV_150_250_GE1J'
p19
F0.9880382775119617
sS'qqH_hww_MJJ_60_120'
p20
F0.9841269841269841
sS'WH_lep_hww_PTV_75_150'
p21
F1.0106822880771882
sS'qqH_hww_MJJ_350_700_PTHJJ_0_25'
p22
F1.0643821391484942
sS'ggH_hww_GE2J_MJJ_0_350_PTH_60_120'
p23
F1.0336700336700335
sS'ggZH_lep_hww_PTV_150_250_0J'
p24
F1.221502590673575
sS'ggZH_lep_hww_PTV_GT250'
p25
F0.7786343612334802
sS'ggH_hww_GE2J_MJJ_GT700_PTHJJ_GT25'
p26
F0.9354838709677419
sS'ggZH_lep_hww_PTV_0_75'
p27
F1.1952291274325173
sS'WH_lep_hww_PTV_GT250'
p28
F0.9491525423728813
sS'ZH_had_hww_MJJ_0_60'
p29
F1.1636363636363638
sS'qqH_hww_0J'
p30
F0.9319092122830441
sS'ZH_lep_hww_PTV_150_250_0J'
p31
F0.9817184643510055
sS'ggH_hww_PTH_200_300'
p32
F0.9484536082474228
sS'ggH_hww_GE2J_MJJ_GT700_PTHJJ_0_25'
p33
F0.9411764705882353
sS'ZH_lep_hww_PTV_0_75'
p34
F1.0050593928728553
sS'qqH_hww_MJJ_0_60'
p35
F0.9710144927536233
sS'qqH_hww_MJJ_120_350'
p36
F1.0258548790658883
sS'qqH_hww_MJJ_GT700_PTHJJ_0_25'
p37
F1.0483193277310925
sS'ggH_hww_1J_PTH_60_120'
p38
F1.0074468085106383
sS'ggH_hww_GE2J_MJJ_0_350_PTH_0_60'
p39
F1.0869565217391304
sS'WH_had_hww_MJJ_0_60'
p40
F0.8390804597701149
sS'qqH_hww_MJJ_350_700_PTHJJ_GT25'
p41
F0.9439461883408071
sS'ggZH_lep_hww_PTV_150_250_GE1J'
p42
F0.9377880184331798
sS'qqH_hww_FWDH'
p43
F0.9683908045977012
sS'ggZH_lep_hww_FWDH'
p44
F1.1042471042471043
sS'ggH_hww_PTH_450_650'
p45
F0.75
sS'ggH_hww_PTH_GT650'
p46
F1.0
sS'ggZH_lep_hww_PTV_75_150'
p47
F1.0297812936249418
sS'ZH_lep_hww_PTV_GT250'
p48
F0.9348534201954398
sS'ggH_hww_0J_PTH_GT10'
p49
F0.9818265470439383
sS'ggH_hww_0J_PTH_0_10'
p50
F1.0692124105011933
sS'WH_lep_hww_FWDH'
p51
F0.9733750978856696
s.